target datalayout = "e-m:e-p270:32:32-p271:32:32-p272:64:64-i64:64-i128:128-f80:128-n8:16:32:64-S128"
target triple = "x86_64-unknown-linux-gnu"

%"class.std::complex" = type { { double, double } }

; Function Attrs: mustprogress nounwind uwtable
define linkonce_odr void @_ZNSt7complexIdEC2Edd(ptr noundef nonnull align 8 dereferenceable(16) %this, double noundef %__r, double noundef %__i) unnamed_addr #3 comdat align 2 {
entry:
  %this.addr = alloca ptr, align 8
  %__r.addr = alloca double, align 8
  %__i.addr = alloca double, align 8
  store ptr %this, ptr %this.addr, align 8, !tbaa !7
  store double %__r, ptr %__r.addr, align 8, !tbaa !3
  store double %__i, ptr %__i.addr, align 8, !tbaa !3
  %this1 = load ptr, ptr %this.addr, align 8
  %_M_value = getelementptr inbounds nuw %"class.std::complex", ptr %this1, i32 0, i32 0
  %0 = load double, ptr %__r.addr, align 8, !tbaa !3
  %1 = load double, ptr %__i.addr, align 8, !tbaa !3
  %_M_value.realp = getelementptr inbounds nuw { double, double }, ptr %_M_value, i32 0, i32 0
  %_M_value.imagp = getelementptr inbounds nuw { double, double }, ptr %_M_value, i32 0, i32 1
  store double %0, ptr %_M_value.realp, align 8
  store double %1, ptr %_M_value.imagp, align 8
  ret void
}

; Function Attrs: mustprogress nounwind uwtable
define linkonce_odr noundef double @_ZNKSt7complexIdE4realB5cxx11Ev(ptr noundef nonnull align 8 dereferenceable(16) %this) #3 comdat align 2 {
entry:
  %this.addr = alloca ptr, align 8
  store ptr %this, ptr %this.addr, align 8, !tbaa !7
  %this1 = load ptr, ptr %this.addr, align 8
  %_M_value = getelementptr inbounds nuw %"class.std::complex", ptr %this1, i32 0, i32 0
  %_M_value.realp = getelementptr inbounds nuw { double, double }, ptr %_M_value, i32 0, i32 0
  %0 = load double, ptr %_M_value.realp, align 8, !tbaa !3
  ret double %0
}

; Function Attrs: mustprogress nounwind uwtable
define linkonce_odr noundef double @_ZNKSt7complexIdE4imagB5cxx11Ev(ptr noundef nonnull align 8 dereferenceable(16) %this) #3 comdat align 2 {
entry:
  %this.addr = alloca ptr, align 8
  store ptr %this, ptr %this.addr, align 8, !tbaa !7
  %this1 = load ptr, ptr %this.addr, align 8
  %_M_value = getelementptr inbounds nuw %"class.std::complex", ptr %this1, i32 0, i32 0
  %_M_value.imagp = getelementptr inbounds nuw { double, double }, ptr %_M_value, i32 0, i32 1
  %0 = load double, ptr %_M_value.imagp, align 8, !tbaa !3
  ret double %0
}

; Function Attrs: mustprogress uwtable
define { double, double } @_ZN8QuantLib46modifiedBesselFunction_i_exponentiallyWeightedEdRKSt7complexIdE(double noundef %nu, ptr noundef nonnull align 8 dereferenceable(16) %z) #0 {
entry:
  %retval = alloca %"class.std::complex", align 8
  %nu.addr = alloca double, align 8
  %z.addr = alloca ptr, align 8
  store double %nu, ptr %nu.addr, align 8, !tbaa !3
  store ptr %z, ptr %z.addr, align 8, !tbaa !7
  %0 = load ptr, ptr %z.addr, align 8, !tbaa !7
  %call = call noundef double @_ZNKSt7complexIdE4imagB5cxx11Ev(ptr noundef nonnull align 8 dereferenceable(16) %0)
  %cmp = fcmp oeq double %call, 0.000000e+00
  br i1 %cmp, label %land.lhs.true, label %if.end

land.lhs.true:                                    ; preds = %entry
  %1 = load ptr, ptr %z.addr, align 8, !tbaa !7
  %call1 = call noundef double @_ZNKSt7complexIdE4realB5cxx11Ev(ptr noundef nonnull align 8 dereferenceable(16) %1)
  %cmp2 = fcmp oge double %call1, 0.000000e+00
  br i1 %cmp2, label %if.then, label %if.end

if.then:                                          ; preds = %land.lhs.true
  %2 = load double, ptr %nu.addr, align 8, !tbaa !3
  %3 = load ptr, ptr %z.addr, align 8, !tbaa !7
  %call3 = call noundef double @_ZNKSt7complexIdE4realB5cxx11Ev(ptr noundef nonnull align 8 dereferenceable(16) %3)
  %call4 = call noundef double @_ZN8QuantLib46modifiedBesselFunction_i_exponentiallyWeightedEdd(double noundef %2, double noundef %call3)
  call void @_ZNSt7complexIdEC2Edd(ptr noundef nonnull align 8 dereferenceable(16) %retval, double noundef %call4, double noundef 0.000000e+00)
  br label %return

if.end:                                           ; preds = %land.lhs.true, %entry
  %4 = load double, ptr %nu.addr, align 8, !tbaa !3
  %5 = load ptr, ptr %z.addr, align 8, !tbaa !7
  %call5 = call { double, double } @_ZN8QuantLib12_GLOBAL__N_129modifiedBesselFunction_i_implISt7complexIdENS0_21ExponentiallyWeightedEEET_dRKS5_(double noundef %4, ptr noundef nonnull align 8 dereferenceable(16) %5)
  %coerce.dive = getelementptr inbounds nuw %"class.std::complex", ptr %retval, i32 0, i32 0
  %6 = getelementptr inbounds nuw { double, double }, ptr %coerce.dive, i32 0, i32 0
  %7 = extractvalue { double, double } %call5, 0
  store double %7, ptr %6, align 8
  %8 = getelementptr inbounds nuw { double, double }, ptr %coerce.dive, i32 0, i32 1
  %9 = extractvalue { double, double } %call5, 1
  store double %9, ptr %8, align 8
  br label %return

return:                                           ; preds = %if.end, %if.then
  %coerce.dive6 = getelementptr inbounds nuw %"class.std::complex", ptr %retval, i32 0, i32 0
  %10 = load { double, double }, ptr %coerce.dive6, align 8
  ret { double, double } %10
}