; Function Attrs: mustprogress uwtable
define { double, double } @_ZN8QuantLib46modifiedBesselFunction_i_exponentiallyWeightedEdRKSt7complexIdE(double noundef %nu, ptr nocapture noundef nonnull readonly align 8 dereferenceable(16) %z) local_unnamed_addr #0 {
entry:
  %_M_value.imagp.i = getelementptr inbounds nuw i8, ptr %z, i64 8
  %0 = load double, ptr %_M_value.imagp.i, align 8, !tbaa !3
  %cmp = fcmp oeq double %0, 0.000000e+00
  br i1 %cmp, label %land.lhs.true, label %if.end

land.lhs.true:                                    ; preds = %entry
  %1 = load double, ptr %z, align 8, !tbaa !3
  %cmp2 = fcmp ult double %1, 0.000000e+00
  br i1 %cmp2, label %if.end, label %if.then

if.then:                                          ; preds = %land.lhs.true
  %call4 = tail call noundef double @_ZN8QuantLib46modifiedBesselFunction_i_exponentiallyWeightedEdd(double noundef %nu, double noundef %1)
  br label %return

if.end:                                           ; preds = %land.lhs.true, %entry
  %call5 = tail call fastcc { double, double } @_ZN8QuantLib12_GLOBAL__N_129modifiedBesselFunction_i_implISt7complexIdENS0_21ExponentiallyWeightedEEET_dRKS5_(double noundef %nu, ptr noundef nonnull align 8 dereferenceable(16) %z)
  %2 = extractvalue { double, double } %call5, 0
  %3 = extractvalue { double, double } %call5, 1
  br label %return

return:                                           ; preds = %if.end, %if.then
  %retval.sroa.3.0 = phi double [ %3, %if.end ], [ 0.000000e+00, %if.then ]
  %retval.sroa.0.0 = phi double [ %2, %if.end ], [ %call4, %if.then ]
  %.fca.0.insert = insertvalue { double, double } poison, double %retval.sroa.0.0, 0
  %.fca.1.insert = insertvalue { double, double } %.fca.0.insert, double %retval.sroa.3.0, 1
  ret { double, double } %.fca.1.insert
}